target datalayout = "e-m:e-p270:32:32-p271:32:32-p272:64:64-i64:64-i128:128-f80:128-n8:16:32:64-S128"
target triple = "x86_64-pc-linux-gnu"

%struct.rb_data_type_struct = type { ptr, %struct.anon, ptr, ptr, i64 }
%struct.anon = type { ptr, ptr, ptr, ptr, [1 x ptr] }

@rb_eRuntimeError = external global i64, align 8
@ossl_digest_type = internal constant %struct.rb_data_type_struct { ptr @.str.19, %struct.anon { ptr null, ptr @ossl_digest_free, ptr null, ptr null, [1 x ptr] zeroinitializer }, ptr null, ptr null, i64 33 }, align 8
@.str.1 = private unnamed_addr constant [31 x i8] c"Digest CTX wasn't initialized!\00", align 1
@eDigestError = internal global i64 0, align 8
@.str.21 = private unnamed_addr constant [30 x i8] c"Digest initialization failed.\00", align 1

; Function Attrs: nounwind sspstrong uwtable
define internal i64 @ossl_digest_reset(i64 noundef %0) #0 {
  %2 = alloca i64, align 8
  %3 = alloca ptr, align 8
  store i64 %0, ptr %2, align 8, !tbaa !6
  call void @llvm.lifetime.start.p0(i64 8, ptr %3) #15
  br label %4

4:                                                ; preds = %1
  %5 = load i64, ptr %2, align 8, !tbaa !6
  %6 = call ptr @rb_check_typeddata(i64 noundef %5, ptr noundef @ossl_digest_type)
  store ptr %6, ptr %3, align 8, !tbaa !17
  %7 = load ptr, ptr %3, align 8, !tbaa !17
  %8 = icmp ne ptr %7, null
  br i1 %8, label %11, label %9

9:                                                ; preds = %4
  %10 = load i64, ptr @rb_eRuntimeError, align 8, !tbaa !6
  call void (i64, ptr, ...) @ossl_raise(i64 noundef %10, ptr noundef @.str.1) #17
  unreachable

11:                                               ; preds = %4
  br label %12

12:                                               ; preds = %11
  br label %13

13:                                               ; preds = %12
  %14 = load ptr, ptr %3, align 8, !tbaa !17
  %15 = load ptr, ptr %3, align 8, !tbaa !17
  %16 = call ptr @EVP_MD_CTX_get0_md(ptr noundef %15)
  %17 = call i32 @EVP_DigestInit_ex(ptr noundef %14, ptr noundef %16, ptr noundef null)
  %18 = icmp ne i32 %17, 1
  br i1 %18, label %19, label %21

19:                                               ; preds = %13
  %20 = load i64, ptr @eDigestError, align 8, !tbaa !6
  call void (i64, ptr, ...) @ossl_raise(i64 noundef %20, ptr noundef @.str.21) #17
  unreachable

21:                                               ; preds = %13
  %22 = load i64, ptr %2, align 8, !tbaa !6
  call void @llvm.lifetime.end.p0(i64 8, ptr %3) #15
  ret i64 %22
}