; Function Attrs: nounwind sspstrong uwtable
define internal noundef i64 @ossl_digest_reset(i64 noundef returned %0) #0 {
  %2 = tail call ptr @rb_check_typeddata(i64 noundef %0, ptr noundef nonnull @ossl_digest_type) #4
  %.not = icmp eq ptr %2, null
  br i1 %.not, label %3, label %5

3:                                                ; preds = %1
  %4 = load i64, ptr @rb_eRuntimeError, align 8, !tbaa !6
  tail call void (i64, ptr, ...) @ossl_raise(i64 noundef %4, ptr noundef nonnull @.str.1) #5
  unreachable

5:                                                ; preds = %1
  %6 = tail call ptr @EVP_MD_CTX_get0_md(ptr noundef nonnull %2) #4
  %7 = tail call i32 @EVP_DigestInit_ex(ptr noundef nonnull %2, ptr noundef %6, ptr noundef null) #4
  %.not4 = icmp eq i32 %7, 1
  br i1 %.not4, label %10, label %8

8:                                                ; preds = %5
  %9 = load i64, ptr @eDigestError, align 8, !tbaa !6
  tail call void (i64, ptr, ...) @ossl_raise(i64 noundef %9, ptr noundef nonnull @.str.21) #5
  unreachable

10:                                               ; preds = %5
  ret i64 %0
}